; Function Attrs: nounwind uwtable
define noundef ptr @Hop_ObjCreatePi(ptr noundef %0) local_unnamed_addr #0 {
  %2 = tail call fastcc ptr @Hop_ManFetchMemory(ptr noundef %0)
  %3 = getelementptr inbounds nuw i8, ptr %2, i64 32
  %4 = load i32, ptr %3, align 8
  %5 = and i32 %4, -8
  %6 = or disjoint i32 %5, 2
  store i32 %6, ptr %3, align 8
  %7 = load ptr, ptr %0, align 8
  %8 = getelementptr i8, ptr %7, i64 4
  %.val = load i32, ptr %8, align 4
  %9 = getelementptr inbounds nuw i8, ptr %2, i64 8
  store i32 %.val, ptr %9, align 8
  %10 = load ptr, ptr %0, align 8
  %11 = getelementptr inbounds nuw i8, ptr %10, i64 4
  %12 = load i32, ptr %11, align 4
  %13 = load i32, ptr %10, align 8
  %14 = icmp eq i32 %12, %13
  br i1 %14, label %15, label %.Vec_PtrGrow.exit11_crit_edge.i

.Vec_PtrGrow.exit11_crit_edge.i:                  ; preds = %1
  %.phi.trans.insert.i = getelementptr inbounds nuw i8, ptr %10, i64 8
  %.pre.i = load ptr, ptr %.phi.trans.insert.i, align 8
  br label %Vec_PtrPush.exit

15:                                               ; preds = %1
  %16 = icmp slt i32 %12, 16
  br i1 %16, label %17, label %25

17:                                               ; preds = %15
  %18 = getelementptr inbounds nuw i8, ptr %10, i64 8
  %19 = load ptr, ptr %18, align 8
  %.not9.i.i = icmp eq ptr %19, null
  br i1 %.not9.i.i, label %22, label %20

20:                                               ; preds = %17
  %21 = tail call dereferenceable_or_null(128) ptr @realloc(ptr noundef nonnull %19, i64 noundef 128) #8
  br label %Vec_PtrGrow.exit.i

22:                                               ; preds = %17
  %23 = tail call noalias dereferenceable_or_null(128) ptr @malloc(i64 noundef 128) #9
  br label %Vec_PtrGrow.exit.i

Vec_PtrGrow.exit.i:                               ; preds = %22, %20
  %24 = phi ptr [ %21, %20 ], [ %23, %22 ]
  store ptr %24, ptr %18, align 8
  store i32 16, ptr %10, align 8
  br label %Vec_PtrPush.exit

25:                                               ; preds = %15
  %26 = shl nuw nsw i32 %12, 1
  %27 = getelementptr inbounds nuw i8, ptr %10, i64 8
  %28 = load ptr, ptr %27, align 8
  %.not9.i10.i = icmp eq ptr %28, null
  %29 = zext nneg i32 %26 to i64
  %30 = shl nuw nsw i64 %29, 3
  br i1 %.not9.i10.i, label %33, label %31

31:                                               ; preds = %25
  %32 = tail call ptr @realloc(ptr noundef nonnull %28, i64 noundef %30) #8
  br label %35

33:                                               ; preds = %25
  %34 = tail call noalias ptr @malloc(i64 noundef %30) #9
  br label %35

35:                                               ; preds = %33, %31
  %36 = phi ptr [ %32, %31 ], [ %34, %33 ]
  store ptr %36, ptr %27, align 8
  store i32 %26, ptr %10, align 8
  br label %Vec_PtrPush.exit

Vec_PtrPush.exit:                                 ; preds = %.Vec_PtrGrow.exit11_crit_edge.i, %Vec_PtrGrow.exit.i, %35
  %37 = phi ptr [ %.pre.i, %.Vec_PtrGrow.exit11_crit_edge.i ], [ %36, %35 ], [ %24, %Vec_PtrGrow.exit.i ]
  %38 = load i32, ptr %11, align 4
  %39 = add nsw i32 %38, 1
  store i32 %39, ptr %11, align 4
  %40 = sext i32 %38 to i64
  %41 = getelementptr inbounds ptr, ptr %37, i64 %40
  store ptr %2, ptr %41, align 8
  %42 = getelementptr inbounds nuw i8, ptr %0, i64 80
  %43 = load i32, ptr %42, align 8
  %44 = add nsw i32 %43, 1
  store i32 %44, ptr %42, align 8
  ret ptr %2
}